target datalayout = "e-m:e-p270:32:32-p271:32:32-p272:64:64-i64:64-i128:128-f80:128-n8:16:32:64-S128"
target triple = "x86_64-pc-linux-gnu"

%struct.AVRational = type { i32, i32 }
%struct.AVChannelLayout = type { i32, i32, %union.anon, ptr }
%union.anon = type { i64 }
%struct.AVFilterContext = type { ptr, ptr, ptr, ptr, ptr, i32, ptr, ptr, i32, ptr, ptr, i32, i32, ptr, ptr, ptr, ptr, i32, ptr, i32, i32 }
%struct.BufferSourceContext = type { ptr, %struct.AVRational, %struct.AVRational, i32, i32, i32, i32, i32, i32, i32, i32, i32, i32, i32, %struct.AVRational, ptr, i32, i32, i32, %struct.AVChannelLayout, ptr, i32, i32, i64, i32, i32 }

@.str.60 = private unnamed_addr constant [42 x i8] c"Sample format was not set or was invalid\0A\00", align 1
@.str.61 = private unnamed_addr constant [60 x i8] c"Mismatching channel count %d and layout '%s' (%d channels)\0A\00", align 1
@.str.62 = private unnamed_addr constant [57 x i8] c"Neither number of channels nor channel layout specified\0A\00", align 1
@.str.63 = private unnamed_addr constant [21 x i8] c"Sample rate not set\0A\00", align 1
@.str.64 = private unnamed_addr constant [49 x i8] c"tb:%d/%d samplefmt:%s samplerate:%d chlayout:%s\0A\00", align 1

; Function Attrs: cold nounwind optsize uwtable
define internal i32 @init_audio(ptr noundef %0) #6 {
  %2 = alloca i32, align 4
  %3 = alloca ptr, align 8
  %4 = alloca ptr, align 8
  %5 = alloca [128 x i8], align 16
  %6 = alloca i32, align 4
  %7 = alloca i32, align 4
  %8 = alloca i32, align 4
  %9 = alloca %struct.AVChannelLayout, align 8
  %10 = alloca %struct.AVRational, align 4
  store ptr %0, ptr %3, align 8, !tbaa !19
  call void @llvm.lifetime.start.p0(i64 8, ptr %4) #7
  %11 = load ptr, ptr %3, align 8, !tbaa !19
  %12 = getelementptr inbounds nuw %struct.AVFilterContext, ptr %11, i32 0, i32 9
  %13 = load ptr, ptr %12, align 8, !tbaa !21
  store ptr %13, ptr %4, align 8, !tbaa !31
  call void @llvm.lifetime.start.p0(i64 128, ptr %5) #7
  call void @llvm.lifetime.start.p0(i64 4, ptr %6) #7
  store i32 0, ptr %6, align 4, !tbaa !36
  %14 = load ptr, ptr %4, align 8, !tbaa !31
  %15 = getelementptr inbounds nuw %struct.BufferSourceContext, ptr %14, i32 0, i32 17
  %16 = load i32, ptr %15, align 4, !tbaa !62
  %17 = icmp eq i32 %16, -1
  br i1 %17, label %18, label %20

18:                                               ; preds = %1
  %19 = load ptr, ptr %3, align 8, !tbaa !19
  call void (ptr, i32, ptr, ...) @av_log(ptr noundef %19, i32 noundef 16, ptr noundef @.str.60)
  store i32 -22, ptr %2, align 4
  store i32 1, ptr %7, align 4
  br label %121

20:                                               ; preds = %1
  %21 = load ptr, ptr %4, align 8, !tbaa !31
  %22 = getelementptr inbounds nuw %struct.BufferSourceContext, ptr %21, i32 0, i32 19
  %23 = call i32 @av_channel_layout_check(ptr noundef %22)
  %24 = icmp ne i32 %23, 0
  br i1 %24, label %25, label %59

25:                                               ; preds = %20
  call void @llvm.lifetime.start.p0(i64 4, ptr %8) #7
  %26 = load ptr, ptr %4, align 8, !tbaa !31
  %27 = getelementptr inbounds nuw %struct.BufferSourceContext, ptr %26, i32 0, i32 19
  %28 = getelementptr inbounds nuw %struct.AVChannelLayout, ptr %27, i32 0, i32 1
  %29 = load i32, ptr %28, align 4, !tbaa !101
  store i32 %29, ptr %8, align 4, !tbaa !36
  %30 = load ptr, ptr %4, align 8, !tbaa !31
  %31 = getelementptr inbounds nuw %struct.BufferSourceContext, ptr %30, i32 0, i32 19
  %32 = getelementptr inbounds [128 x i8], ptr %5, i64 0, i64 0
  %33 = call i32 @av_channel_layout_describe(ptr noundef %31, ptr noundef %32, i64 noundef 128)
  %34 = load ptr, ptr %4, align 8, !tbaa !31
  %35 = getelementptr inbounds nuw %struct.BufferSourceContext, ptr %34, i32 0, i32 18
  %36 = load i32, ptr %35, align 8, !tbaa !103
  %37 = icmp ne i32 %36, 0
  br i1 %37, label %38, label %52

38:                                               ; preds = %25
  %39 = load i32, ptr %8, align 4, !tbaa !36
  %40 = load ptr, ptr %4, align 8, !tbaa !31
  %41 = getelementptr inbounds nuw %struct.BufferSourceContext, ptr %40, i32 0, i32 18
  %42 = load i32, ptr %41, align 8, !tbaa !103
  %43 = icmp ne i32 %39, %42
  br i1 %43, label %44, label %51

44:                                               ; preds = %38
  %45 = load ptr, ptr %3, align 8, !tbaa !19
  %46 = load ptr, ptr %4, align 8, !tbaa !31
  %47 = getelementptr inbounds nuw %struct.BufferSourceContext, ptr %46, i32 0, i32 18
  %48 = load i32, ptr %47, align 8, !tbaa !103
  %49 = getelementptr inbounds [128 x i8], ptr %5, i64 0, i64 0
  %50 = load i32, ptr %8, align 4, !tbaa !36
  call void (ptr, i32, ptr, ...) @av_log(ptr noundef %45, i32 noundef 16, ptr noundef @.str.61, i32 noundef %48, ptr noundef %49, i32 noundef %50)
  store i32 -22, ptr %2, align 4
  store i32 1, ptr %7, align 4
  br label %56

51:                                               ; preds = %38
  br label %52

52:                                               ; preds = %51, %25
  %53 = load i32, ptr %8, align 4, !tbaa !36
  %54 = load ptr, ptr %4, align 8, !tbaa !31
  %55 = getelementptr inbounds nuw %struct.BufferSourceContext, ptr %54, i32 0, i32 18
  store i32 %53, ptr %55, align 8, !tbaa !103
  store i32 0, ptr %7, align 4
  br label %56

56:                                               ; preds = %52, %44
  call void @llvm.lifetime.end.p0(i64 4, ptr %8) #7
  %57 = load i32, ptr %7, align 4
  switch i32 %57, label %121 [
    i32 0, label %58
  ]

58:                                               ; preds = %56
  br label %81

59:                                               ; preds = %20
  %60 = load ptr, ptr %4, align 8, !tbaa !31
  %61 = getelementptr inbounds nuw %struct.BufferSourceContext, ptr %60, i32 0, i32 18
  %62 = load i32, ptr %61, align 8, !tbaa !103
  %63 = icmp ne i32 %62, 0
  br i1 %63, label %66, label %64

64:                                               ; preds = %59
  %65 = load ptr, ptr %3, align 8, !tbaa !19
  call void (ptr, i32, ptr, ...) @av_log(ptr noundef %65, i32 noundef 16, ptr noundef @.str.62)
  store i32 -22, ptr %2, align 4
  store i32 1, ptr %7, align 4
  br label %121

66:                                               ; preds = %59
  %67 = load ptr, ptr %4, align 8, !tbaa !31
  %68 = getelementptr inbounds nuw %struct.BufferSourceContext, ptr %67, i32 0, i32 19
  %69 = getelementptr inbounds nuw %struct.AVChannelLayout, ptr %9, i32 0, i32 0
  store i32 0, ptr %69, align 8, !tbaa !133
  %70 = getelementptr inbounds nuw %struct.AVChannelLayout, ptr %9, i32 0, i32 1
  %71 = load ptr, ptr %4, align 8, !tbaa !31
  %72 = getelementptr inbounds nuw %struct.BufferSourceContext, ptr %71, i32 0, i32 18
  %73 = load i32, ptr %72, align 8, !tbaa !103
  store i32 %73, ptr %70, align 4, !tbaa !134
  %74 = getelementptr inbounds nuw %struct.AVChannelLayout, ptr %9, i32 0, i32 2
  call void @llvm.memset.p0.i64(ptr align 8 %74, i8 0, i64 8, i1 false)
  %75 = getelementptr inbounds nuw %struct.AVChannelLayout, ptr %9, i32 0, i32 3
  store ptr null, ptr %75, align 8, !tbaa !135
  call void @llvm.memcpy.p0.p0.i64(ptr align 8 %68, ptr align 8 %9, i64 24, i1 false), !tbaa.struct !136
  %76 = load ptr, ptr %4, align 8, !tbaa !31
  %77 = getelementptr inbounds nuw %struct.BufferSourceContext, ptr %76, i32 0, i32 19
  %78 = getelementptr inbounds [128 x i8], ptr %5, i64 0, i64 0
  %79 = call i32 @av_channel_layout_describe(ptr noundef %77, ptr noundef %78, i64 noundef 128)
  br label %80

80:                                               ; preds = %66
  br label %81

81:                                               ; preds = %80, %58
  %82 = load ptr, ptr %4, align 8, !tbaa !31
  %83 = getelementptr inbounds nuw %struct.BufferSourceContext, ptr %82, i32 0, i32 16
  %84 = load i32, ptr %83, align 8, !tbaa !64
  %85 = icmp sle i32 %84, 0
  br i1 %85, label %86, label %88

86:                                               ; preds = %81
  %87 = load ptr, ptr %3, align 8, !tbaa !19
  call void (ptr, i32, ptr, ...) @av_log(ptr noundef %87, i32 noundef 16, ptr noundef @.str.63)
  store i32 -22, ptr %2, align 4
  store i32 1, ptr %7, align 4
  br label %121

88:                                               ; preds = %81
  %89 = load ptr, ptr %4, align 8, !tbaa !31
  %90 = getelementptr inbounds nuw %struct.BufferSourceContext, ptr %89, i32 0, i32 1
  %91 = getelementptr inbounds nuw %struct.AVRational, ptr %90, i32 0, i32 0
  %92 = load i32, ptr %91, align 8, !tbaa !116
  %93 = icmp ne i32 %92, 0
  br i1 %93, label %102, label %94

94:                                               ; preds = %88
  %95 = load ptr, ptr %4, align 8, !tbaa !31
  %96 = getelementptr inbounds nuw %struct.BufferSourceContext, ptr %95, i32 0, i32 1
  %97 = getelementptr inbounds nuw %struct.AVRational, ptr %10, i32 0, i32 0
  store i32 1, ptr %97, align 4, !tbaa !138
  %98 = getelementptr inbounds nuw %struct.AVRational, ptr %10, i32 0, i32 1
  %99 = load ptr, ptr %4, align 8, !tbaa !31
  %100 = getelementptr inbounds nuw %struct.BufferSourceContext, ptr %99, i32 0, i32 16
  %101 = load i32, ptr %100, align 8, !tbaa !64
  store i32 %101, ptr %98, align 4, !tbaa !139
  call void @llvm.memcpy.p0.p0.i64(ptr align 8 %96, ptr align 4 %10, i64 8, i1 false), !tbaa.struct !35
  br label %102

102:                                              ; preds = %94, %88
  %103 = load ptr, ptr %3, align 8, !tbaa !19
  %104 = load ptr, ptr %4, align 8, !tbaa !31
  %105 = getelementptr inbounds nuw %struct.BufferSourceContext, ptr %104, i32 0, i32 1
  %106 = getelementptr inbounds nuw %struct.AVRational, ptr %105, i32 0, i32 0
  %107 = load i32, ptr %106, align 8, !tbaa !116
  %108 = load ptr, ptr %4, align 8, !tbaa !31
  %109 = getelementptr inbounds nuw %struct.BufferSourceContext, ptr %108, i32 0, i32 1
  %110 = getelementptr inbounds nuw %struct.AVRational, ptr %109, i32 0, i32 1
  %111 = load i32, ptr %110, align 4, !tbaa !117
  %112 = load ptr, ptr %4, align 8, !tbaa !31
  %113 = getelementptr inbounds nuw %struct.BufferSourceContext, ptr %112, i32 0, i32 17
  %114 = load i32, ptr %113, align 4, !tbaa !62
  %115 = call ptr @av_get_sample_fmt_name(i32 noundef %114)
  %116 = load ptr, ptr %4, align 8, !tbaa !31
  %117 = getelementptr inbounds nuw %struct.BufferSourceContext, ptr %116, i32 0, i32 16
  %118 = load i32, ptr %117, align 8, !tbaa !64
  %119 = getelementptr inbounds [128 x i8], ptr %5, i64 0, i64 0
  call void (ptr, i32, ptr, ...) @av_log(ptr noundef %103, i32 noundef 40, ptr noundef @.str.64, i32 noundef %107, i32 noundef %111, ptr noundef %115, i32 noundef %118, ptr noundef %119)
  %120 = load i32, ptr %6, align 4, !tbaa !36
  store i32 %120, ptr %2, align 4
  store i32 1, ptr %7, align 4
  br label %121

121:                                              ; preds = %102, %86, %64, %56, %18
  call void @llvm.lifetime.end.p0(i64 4, ptr %6) #7
  call void @llvm.lifetime.end.p0(i64 128, ptr %5) #7
  call void @llvm.lifetime.end.p0(i64 8, ptr %4) #7
  %122 = load i32, ptr %2, align 4
  ret i32 %122
}