; Function Attrs: cold nounwind optsize uwtable
define internal range(i32 -22, 1) i32 @init_audio(ptr noundef %0) #5 {
  %2 = alloca [128 x i8], align 16
  %3 = getelementptr inbounds nuw i8, ptr %0, i64 72
  %4 = load ptr, ptr %3, align 8, !tbaa !17
  call void @llvm.lifetime.start.p0(i64 128, ptr nonnull %2) #6
  %5 = getelementptr inbounds nuw i8, ptr %4, i64 92
  %6 = load i32, ptr %5, align 4, !tbaa !54
  %7 = icmp eq i32 %6, -1
  br i1 %7, label %8, label %9

8:                                                ; preds = %1
  tail call void (ptr, i32, ptr, ...) @av_log(ptr noundef nonnull %0, i32 noundef 16, ptr noundef nonnull @.str.60) #6
  br label %40

9:                                                ; preds = %1
  %10 = getelementptr inbounds nuw i8, ptr %4, i64 104
  %11 = tail call i32 @av_channel_layout_check(ptr noundef nonnull %10) #6
  %.not = icmp eq i32 %11, 0
  br i1 %.not, label %19, label %12

12:                                               ; preds = %9
  %13 = getelementptr inbounds nuw i8, ptr %4, i64 108
  %14 = load i32, ptr %13, align 4, !tbaa !93
  %15 = call i32 @av_channel_layout_describe(ptr noundef nonnull %10, ptr noundef nonnull %2, i64 noundef 128) #6
  %16 = getelementptr inbounds nuw i8, ptr %4, i64 96
  %17 = load i32, ptr %16, align 8, !tbaa !95
  %.not39 = icmp eq i32 %17, 0
  %.not40 = icmp eq i32 %14, %17
  %or.cond = select i1 %.not39, i1 true, i1 %.not40
  br i1 %or.cond, label %18, label %.critedge

.critedge:                                        ; preds = %12
  call void (ptr, i32, ptr, ...) @av_log(ptr noundef nonnull %0, i32 noundef 16, ptr noundef nonnull @.str.61, i32 noundef %17, ptr noundef nonnull %2, i32 noundef %14) #6
  br label %40

18:                                               ; preds = %12
  store i32 %14, ptr %16, align 8, !tbaa !95
  br label %25

19:                                               ; preds = %9
  %20 = getelementptr inbounds nuw i8, ptr %4, i64 96
  %21 = load i32, ptr %20, align 8, !tbaa !95
  %.not38 = icmp eq i32 %21, 0
  br i1 %.not38, label %22, label %23

22:                                               ; preds = %19
  tail call void (ptr, i32, ptr, ...) @av_log(ptr noundef nonnull %0, i32 noundef 16, ptr noundef nonnull @.str.62) #6
  br label %40

23:                                               ; preds = %19
  store i32 0, ptr %10, align 8, !tbaa !117
  %.sroa.22.0..sroa_idx = getelementptr inbounds nuw i8, ptr %4, i64 108
  store i32 %21, ptr %.sroa.22.0..sroa_idx, align 4, !tbaa !117
  %.sroa.3.0..sroa_idx = getelementptr inbounds nuw i8, ptr %4, i64 112
  tail call void @llvm.memset.p0.i64(ptr noundef nonnull align 8 dereferenceable(16) %.sroa.3.0..sroa_idx, i8 0, i64 16, i1 false)
  %24 = call i32 @av_channel_layout_describe(ptr noundef nonnull %10, ptr noundef nonnull %2, i64 noundef 128) #6
  br label %25

25:                                               ; preds = %18, %23
  %26 = getelementptr inbounds nuw i8, ptr %4, i64 88
  %27 = load i32, ptr %26, align 8, !tbaa !56
  %28 = icmp slt i32 %27, 1
  br i1 %28, label %29, label %30

29:                                               ; preds = %25
  call void (ptr, i32, ptr, ...) @av_log(ptr noundef nonnull %0, i32 noundef 16, ptr noundef nonnull @.str.63) #6
  br label %40

30:                                               ; preds = %25
  %31 = getelementptr inbounds nuw i8, ptr %4, i64 8
  %32 = load i32, ptr %31, align 8, !tbaa !102
  %.not41 = icmp eq i32 %32, 0
  br i1 %.not41, label %33, label %._crit_edge

._crit_edge:                                      ; preds = %30
  %.phi.trans.insert = getelementptr inbounds nuw i8, ptr %4, i64 12
  %.pre = load i32, ptr %.phi.trans.insert, align 4, !tbaa !103
  br label %34

33:                                               ; preds = %30
  store i32 1, ptr %31, align 8, !tbaa !117
  %.sroa.2.0..sroa_idx = getelementptr inbounds nuw i8, ptr %4, i64 12
  store i32 %27, ptr %.sroa.2.0..sroa_idx, align 4, !tbaa !117
  br label %34

34:                                               ; preds = %._crit_edge, %33
  %35 = phi i32 [ %27, %33 ], [ %.pre, %._crit_edge ]
  %36 = phi i32 [ 1, %33 ], [ %32, %._crit_edge ]
  %37 = load i32, ptr %5, align 4, !tbaa !54
  %38 = call ptr @av_get_sample_fmt_name(i32 noundef %37) #6
  %39 = load i32, ptr %26, align 8, !tbaa !56
  call void (ptr, i32, ptr, ...) @av_log(ptr noundef nonnull %0, i32 noundef 40, ptr noundef nonnull @.str.64, i32 noundef %36, i32 noundef %35, ptr noundef %38, i32 noundef %39, ptr noundef nonnull %2) #6
  br label %40

40:                                               ; preds = %.critedge, %34, %29, %22, %8
  %.0 = phi i32 [ -22, %8 ], [ -22, %29 ], [ 0, %34 ], [ -22, %22 ], [ -22, %.critedge ]
  call void @llvm.lifetime.end.p0(i64 128, ptr nonnull %2) #6
  ret i32 %.0
}